target datalayout = "e-m:e-p270:32:32-p271:32:32-p272:64:64-i64:64-i128:128-f80:128-n8:16:32:64-S128"
target triple = "x86_64-pc-linux-gnu"

%union.stbcc__global_clumpid = type { %struct.anon }
%struct.anon = type { i32 }
%struct.st_stbcc_grid = type { i32, i32, i32, i32, i32, [1024 x [128 x i8]], [1024 x [1024 x i16]], [32 x [32 x %struct.stbcc__cluster]] }
%struct.stbcc__cluster = type { i16, i8, i8, [512 x %struct.stbcc__clump], [128 x %struct.stbcc__relative_clumpid] }
%struct.stbcc__clump = type { %union.stbcc__global_clumpid, i8, i8, i8, i8 }
%struct.stbcc__relative_clumpid = type { i16 }

; Function Attrs: nounwind uwtable
define void @stbcc__add_connections_to_adjacent_cluster_with_rebuild(ptr noundef %0, i32 noundef %1, i32 noundef %2, i32 noundef %3, i32 noundef %4) #0 {
  %6 = alloca ptr, align 8
  %7 = alloca i32, align 4
  %8 = alloca i32, align 4
  %9 = alloca i32, align 4
  %10 = alloca i32, align 4
  store ptr %0, ptr %6, align 8, !tbaa !3
  store i32 %1, ptr %7, align 4, !tbaa !8
  store i32 %2, ptr %8, align 4, !tbaa !8
  store i32 %3, ptr %9, align 4, !tbaa !8
  store i32 %4, ptr %10, align 4, !tbaa !8
  %11 = load i32, ptr %7, align 4, !tbaa !8
  %12 = icmp sge i32 %11, 0
  br i1 %12, label %13, label %50

13:                                               ; preds = %5
  %14 = load i32, ptr %7, align 4, !tbaa !8
  %15 = load ptr, ptr %6, align 8, !tbaa !3
  %16 = getelementptr inbounds nuw %struct.st_stbcc_grid, ptr %15, i32 0, i32 2
  %17 = load i32, ptr %16, align 4, !tbaa !36
  %18 = icmp slt i32 %14, %17
  br i1 %18, label %19, label %50

19:                                               ; preds = %13
  %20 = load i32, ptr %8, align 4, !tbaa !8
  %21 = icmp sge i32 %20, 0
  br i1 %21, label %22, label %50

22:                                               ; preds = %19
  %23 = load i32, ptr %8, align 4, !tbaa !8
  %24 = load ptr, ptr %6, align 8, !tbaa !3
  %25 = getelementptr inbounds nuw %struct.st_stbcc_grid, ptr %24, i32 0, i32 3
  %26 = load i32, ptr %25, align 4, !tbaa !38
  %27 = icmp slt i32 %23, %26
  br i1 %27, label %28, label %50

28:                                               ; preds = %22
  %29 = load ptr, ptr %6, align 8, !tbaa !3
  %30 = load i32, ptr %7, align 4, !tbaa !8
  %31 = load i32, ptr %8, align 4, !tbaa !8
  %32 = load i32, ptr %9, align 4, !tbaa !8
  %33 = load i32, ptr %10, align 4, !tbaa !8
  call void @stbcc__add_connections_to_adjacent_cluster(ptr noundef %29, i32 noundef %30, i32 noundef %31, i32 noundef %32, i32 noundef %33)
  %34 = load ptr, ptr %6, align 8, !tbaa !3
  %35 = getelementptr inbounds nuw %struct.st_stbcc_grid, ptr %34, i32 0, i32 7
  %36 = load i32, ptr %8, align 4, !tbaa !8
  %37 = sext i32 %36 to i64
  %38 = getelementptr inbounds [32 x [32 x %struct.stbcc__cluster]], ptr %35, i64 0, i64 %37
  %39 = load i32, ptr %7, align 4, !tbaa !8
  %40 = sext i32 %39 to i64
  %41 = getelementptr inbounds [32 x %struct.stbcc__cluster], ptr %38, i64 0, i64 %40
  %42 = getelementptr inbounds nuw %struct.stbcc__cluster, ptr %41, i32 0, i32 2
  %43 = load i8, ptr %42, align 1, !tbaa !35
  %44 = icmp ne i8 %43, 0
  br i1 %44, label %45, label %49

45:                                               ; preds = %28
  %46 = load ptr, ptr %6, align 8, !tbaa !3
  %47 = load i32, ptr %7, align 4, !tbaa !8
  %48 = load i32, ptr %8, align 4, !tbaa !8
  call void @stbcc__build_all_connections_for_cluster(ptr noundef %46, i32 noundef %47, i32 noundef %48)
  br label %49

49:                                               ; preds = %45, %28
  br label %50

50:                                               ; preds = %49, %22, %19, %13, %5
  ret void
}