; Function Attrs: nofree norecurse nosync nounwind memory(argmem: readwrite) uwtable
define void @stbcc__add_connections_to_adjacent_cluster_with_rebuild(ptr noundef captures(none) %0, i32 noundef %1, i32 noundef %2, i32 noundef %3, i32 noundef %4) local_unnamed_addr #4 {
  %6 = icmp sgt i32 %1, -1
  br i1 %6, label %7, label %24

7:                                                ; preds = %5
  %8 = getelementptr inbounds nuw i8, ptr %0, i64 8
  %9 = load i32, ptr %8, align 4, !tbaa !25
  %10 = icmp slt i32 %1, %9
  %11 = icmp sgt i32 %2, -1
  %or.cond = and i1 %11, %10
  br i1 %or.cond, label %12, label %24

12:                                               ; preds = %7
  %13 = getelementptr inbounds nuw i8, ptr %0, i64 12
  %14 = load i32, ptr %13, align 4, !tbaa !28
  %15 = icmp slt i32 %2, %14
  br i1 %15, label %16, label %24

16:                                               ; preds = %12
  tail call void @stbcc__add_connections_to_adjacent_cluster(ptr noundef nonnull %0, i32 noundef %1, i32 noundef %2, i32 noundef %3, i32 noundef %4)
  %17 = zext nneg i32 %2 to i64
  %18 = zext nneg i32 %1 to i64
  %.idx = mul nuw nsw i64 %17, 139392
  %.idx18 = mul nuw nsw i64 %18, 4356
  %19 = getelementptr i8, ptr %0, i64 2228247
  %20 = getelementptr i8, ptr %19, i64 %.idx
  %21 = getelementptr i8, ptr %20, i64 %.idx18
  %22 = load i8, ptr %21, align 1, !tbaa !24
  %.not = icmp eq i8 %22, 0
  br i1 %.not, label %24, label %23

23:                                               ; preds = %16
  tail call void @stbcc__build_all_connections_for_cluster(ptr noundef nonnull %0, i32 noundef %1, i32 noundef %2)
  br label %24

24:                                               ; preds = %16, %23, %12, %7, %5
  ret void
}